(lp1
S'CD103p_downOnly'
p2
aS'CD103p_upOnly'
p3
aS'CD11bmCD103m_downOnly'
p4
aS'CD11bmCD103m_upOnly'
p5
aS'CD11bpCD103p_downOnly'
p6
aS'CD11bpCD103p_upOnly'
p7
aS'CD11bp_downOnly'
p8
aS'CD11bp_upOnly'
p9
aS'Macrophages_downOnly'
p10
aS'Macrophages_upOnly'
p11
aS'Monocytes_downOnly'
p12
aS'Monocytes_upOnly'
p13
aS'uniGenes_FDR25_FC0p58_CD11bmCD103m_downOnly'
p14
aS'uniGenes_FDR25_FC0p58_CD11bmCD103m_upOnly'
p15
aS'uniGenes_FDR25_FC0p58_CD11bmCD103p_downOnly'
p16
aS'uniGenes_FDR25_FC0p58_CD11bmCD103p_upOnly'
p17
aS'uniGenes_FDR25_FC0p58_CD11bpCD103m_downOnly'
p18
aS'uniGenes_FDR25_FC0p58_CD11bpCD103m_upOnly'
p19
aS'uniGenes_FDR25_FC0p58_CD11bpCD103p_downOnly'
p20
aS'uniGenes_FDR25_FC0p58_CD11bpCD103p_upOnly'
p21
aS'uniGenes_FDR25_FC0p58_Macrophage_downOnly'
p22
aS'uniGenes_FDR25_FC0p58_Macrophage_upOnly'
p23
aS'uniGenes_FDR25_FC0p58_Monocyte_downOnly'
p24
aS'uniGenes_FDR25_FC0p58_Monocyte_upOnly'
p25
aS'CD103p_downOnly_uniGenes_FDR25_FC0p58_CD11bmCD103m_downOnly'
p26
aS'CD103p_downOnly_uniGenes_FDR25_FC0p58_CD11bmCD103m_upOnly'
p27
aS'CD103p_downOnly_uniGenes_FDR25_FC0p58_CD11bmCD103p_downOnly'
p28
aS'CD103p_downOnly_uniGenes_FDR25_FC0p58_CD11bmCD103p_upOnly'
p29
aS'CD103p_downOnly_uniGenes_FDR25_FC0p58_CD11bpCD103m_downOnly'
p30
aS'CD103p_downOnly_uniGenes_FDR25_FC0p58_CD11bpCD103m_upOnly'
p31
aS'CD103p_downOnly_uniGenes_FDR25_FC0p58_CD11bpCD103p_downOnly'
p32
aS'CD103p_downOnly_uniGenes_FDR25_FC0p58_CD11bpCD103p_upOnly'
p33
aS'CD103p_downOnly_uniGenes_FDR25_FC0p58_Macrophage_downOnly'
p34
aS'CD103p_downOnly_uniGenes_FDR25_FC0p58_Macrophage_upOnly'
p35
aS'CD103p_downOnly_uniGenes_FDR25_FC0p58_Monocyte_downOnly'
p36
aS'CD103p_downOnly_uniGenes_FDR25_FC0p58_Monocyte_upOnly'
p37
aS'CD103p_upOnly_uniGenes_FDR25_FC0p58_CD11bmCD103m_downOnly'
p38
aS'CD103p_upOnly_uniGenes_FDR25_FC0p58_CD11bmCD103m_upOnly'
p39
aS'CD103p_upOnly_uniGenes_FDR25_FC0p58_CD11bmCD103p_downOnly'
p40
aS'CD103p_upOnly_uniGenes_FDR25_FC0p58_CD11bmCD103p_upOnly'
p41
aS'CD103p_upOnly_uniGenes_FDR25_FC0p58_CD11bpCD103m_downOnly'
p42
aS'CD103p_upOnly_uniGenes_FDR25_FC0p58_CD11bpCD103m_upOnly'
p43
aS'CD103p_upOnly_uniGenes_FDR25_FC0p58_CD11bpCD103p_downOnly'
p44
aS'CD103p_upOnly_uniGenes_FDR25_FC0p58_CD11bpCD103p_upOnly'
p45
aS'CD103p_upOnly_uniGenes_FDR25_FC0p58_Macrophage_downOnly'
p46
aS'CD103p_upOnly_uniGenes_FDR25_FC0p58_Macrophage_upOnly'
p47
aS'CD103p_upOnly_uniGenes_FDR25_FC0p58_Monocyte_downOnly'
p48
aS'CD103p_upOnly_uniGenes_FDR25_FC0p58_Monocyte_upOnly'
p49
aS'CD11bmCD103m_downOnly_uniGenes_FDR25_FC0p58_CD11bmCD103m_downOnly'
p50
aS'CD11bmCD103m_downOnly_uniGenes_FDR25_FC0p58_CD11bmCD103m_upOnly'
p51
aS'CD11bmCD103m_downOnly_uniGenes_FDR25_FC0p58_CD11bmCD103p_downOnly'
p52
aS'CD11bmCD103m_downOnly_uniGenes_FDR25_FC0p58_CD11bmCD103p_upOnly'
p53
aS'CD11bmCD103m_downOnly_uniGenes_FDR25_FC0p58_CD11bpCD103m_downOnly'
p54
aS'CD11bmCD103m_downOnly_uniGenes_FDR25_FC0p58_CD11bpCD103m_upOnly'
p55
aS'CD11bmCD103m_downOnly_uniGenes_FDR25_FC0p58_CD11bpCD103p_downOnly'
p56
aS'CD11bmCD103m_downOnly_uniGenes_FDR25_FC0p58_CD11bpCD103p_upOnly'
p57
aS'CD11bmCD103m_downOnly_uniGenes_FDR25_FC0p58_Macrophage_downOnly'
p58
aS'CD11bmCD103m_downOnly_uniGenes_FDR25_FC0p58_Macrophage_upOnly'
p59
aS'CD11bmCD103m_downOnly_uniGenes_FDR25_FC0p58_Monocyte_downOnly'
p60
aS'CD11bmCD103m_downOnly_uniGenes_FDR25_FC0p58_Monocyte_upOnly'
p61
aS'CD11bmCD103m_upOnly_uniGenes_FDR25_FC0p58_CD11bmCD103m_downOnly'
p62
aS'CD11bmCD103m_upOnly_uniGenes_FDR25_FC0p58_CD11bmCD103m_upOnly'
p63
aS'CD11bmCD103m_upOnly_uniGenes_FDR25_FC0p58_CD11bmCD103p_downOnly'
p64
aS'CD11bmCD103m_upOnly_uniGenes_FDR25_FC0p58_CD11bmCD103p_upOnly'
p65
aS'CD11bmCD103m_upOnly_uniGenes_FDR25_FC0p58_CD11bpCD103m_downOnly'
p66
aS'CD11bmCD103m_upOnly_uniGenes_FDR25_FC0p58_CD11bpCD103m_upOnly'
p67
aS'CD11bmCD103m_upOnly_uniGenes_FDR25_FC0p58_CD11bpCD103p_downOnly'
p68
aS'CD11bmCD103m_upOnly_uniGenes_FDR25_FC0p58_CD11bpCD103p_upOnly'
p69
aS'CD11bmCD103m_upOnly_uniGenes_FDR25_FC0p58_Macrophage_downOnly'
p70
aS'CD11bmCD103m_upOnly_uniGenes_FDR25_FC0p58_Macrophage_upOnly'
p71
aS'CD11bmCD103m_upOnly_uniGenes_FDR25_FC0p58_Monocyte_downOnly'
p72
aS'CD11bmCD103m_upOnly_uniGenes_FDR25_FC0p58_Monocyte_upOnly'
p73
aS'CD11bpCD103p_downOnly_uniGenes_FDR25_FC0p58_CD11bmCD103m_downOnly'
p74
aS'CD11bpCD103p_downOnly_uniGenes_FDR25_FC0p58_CD11bmCD103m_upOnly'
p75
aS'CD11bpCD103p_downOnly_uniGenes_FDR25_FC0p58_CD11bmCD103p_downOnly'
p76
aS'CD11bpCD103p_downOnly_uniGenes_FDR25_FC0p58_CD11bmCD103p_upOnly'
p77
aS'CD11bpCD103p_downOnly_uniGenes_FDR25_FC0p58_CD11bpCD103m_downOnly'
p78
aS'CD11bpCD103p_downOnly_uniGenes_FDR25_FC0p58_CD11bpCD103m_upOnly'
p79
aS'CD11bpCD103p_downOnly_uniGenes_FDR25_FC0p58_CD11bpCD103p_downOnly'
p80
aS'CD11bpCD103p_downOnly_uniGenes_FDR25_FC0p58_CD11bpCD103p_upOnly'
p81
aS'CD11bpCD103p_downOnly_uniGenes_FDR25_FC0p58_Macrophage_downOnly'
p82
aS'CD11bpCD103p_downOnly_uniGenes_FDR25_FC0p58_Macrophage_upOnly'
p83
aS'CD11bpCD103p_downOnly_uniGenes_FDR25_FC0p58_Monocyte_downOnly'
p84
aS'CD11bpCD103p_downOnly_uniGenes_FDR25_FC0p58_Monocyte_upOnly'
p85
aS'CD11bpCD103p_upOnly_uniGenes_FDR25_FC0p58_CD11bmCD103m_downOnly'
p86
aS'CD11bpCD103p_upOnly_uniGenes_FDR25_FC0p58_CD11bmCD103m_upOnly'
p87
aS'CD11bpCD103p_upOnly_uniGenes_FDR25_FC0p58_CD11bmCD103p_downOnly'
p88
aS'CD11bpCD103p_upOnly_uniGenes_FDR25_FC0p58_CD11bmCD103p_upOnly'
p89
aS'CD11bpCD103p_upOnly_uniGenes_FDR25_FC0p58_CD11bpCD103m_downOnly'
p90
aS'CD11bpCD103p_upOnly_uniGenes_FDR25_FC0p58_CD11bpCD103m_upOnly'
p91
aS'CD11bpCD103p_upOnly_uniGenes_FDR25_FC0p58_CD11bpCD103p_downOnly'
p92
aS'CD11bpCD103p_upOnly_uniGenes_FDR25_FC0p58_CD11bpCD103p_upOnly'
p93
aS'CD11bpCD103p_upOnly_uniGenes_FDR25_FC0p58_Macrophage_downOnly'
p94
aS'CD11bpCD103p_upOnly_uniGenes_FDR25_FC0p58_Macrophage_upOnly'
p95
aS'CD11bpCD103p_upOnly_uniGenes_FDR25_FC0p58_Monocyte_downOnly'
p96
aS'CD11bpCD103p_upOnly_uniGenes_FDR25_FC0p58_Monocyte_upOnly'
p97
aS'CD11bp_downOnly_uniGenes_FDR25_FC0p58_CD11bmCD103m_downOnly'
p98
aS'CD11bp_downOnly_uniGenes_FDR25_FC0p58_CD11bmCD103m_upOnly'
p99
aS'CD11bp_downOnly_uniGenes_FDR25_FC0p58_CD11bmCD103p_downOnly'
p100
aS'CD11bp_downOnly_uniGenes_FDR25_FC0p58_CD11bmCD103p_upOnly'
p101
aS'CD11bp_downOnly_uniGenes_FDR25_FC0p58_CD11bpCD103m_downOnly'
p102
aS'CD11bp_downOnly_uniGenes_FDR25_FC0p58_CD11bpCD103m_upOnly'
p103
aS'CD11bp_downOnly_uniGenes_FDR25_FC0p58_CD11bpCD103p_downOnly'
p104
aS'CD11bp_downOnly_uniGenes_FDR25_FC0p58_CD11bpCD103p_upOnly'
p105
aS'CD11bp_downOnly_uniGenes_FDR25_FC0p58_Macrophage_downOnly'
p106
aS'CD11bp_downOnly_uniGenes_FDR25_FC0p58_Macrophage_upOnly'
p107
aS'CD11bp_downOnly_uniGenes_FDR25_FC0p58_Monocyte_downOnly'
p108
aS'CD11bp_downOnly_uniGenes_FDR25_FC0p58_Monocyte_upOnly'
p109
aS'CD11bp_upOnly_uniGenes_FDR25_FC0p58_CD11bmCD103m_downOnly'
p110
aS'CD11bp_upOnly_uniGenes_FDR25_FC0p58_CD11bmCD103m_upOnly'
p111
aS'CD11bp_upOnly_uniGenes_FDR25_FC0p58_CD11bmCD103p_downOnly'
p112
aS'CD11bp_upOnly_uniGenes_FDR25_FC0p58_CD11bmCD103p_upOnly'
p113
aS'CD11bp_upOnly_uniGenes_FDR25_FC0p58_CD11bpCD103m_downOnly'
p114
aS'CD11bp_upOnly_uniGenes_FDR25_FC0p58_CD11bpCD103m_upOnly'
p115
aS'CD11bp_upOnly_uniGenes_FDR25_FC0p58_CD11bpCD103p_downOnly'
p116
aS'CD11bp_upOnly_uniGenes_FDR25_FC0p58_CD11bpCD103p_upOnly'
p117
aS'CD11bp_upOnly_uniGenes_FDR25_FC0p58_Macrophage_downOnly'
p118
aS'CD11bp_upOnly_uniGenes_FDR25_FC0p58_Macrophage_upOnly'
p119
aS'CD11bp_upOnly_uniGenes_FDR25_FC0p58_Monocyte_downOnly'
p120
aS'CD11bp_upOnly_uniGenes_FDR25_FC0p58_Monocyte_upOnly'
p121
aS'Macrophages_downOnly_uniGenes_FDR25_FC0p58_CD11bmCD103m_downOnly'
p122
aS'Macrophages_downOnly_uniGenes_FDR25_FC0p58_CD11bmCD103m_upOnly'
p123
aS'Macrophages_downOnly_uniGenes_FDR25_FC0p58_CD11bmCD103p_downOnly'
p124
aS'Macrophages_downOnly_uniGenes_FDR25_FC0p58_CD11bmCD103p_upOnly'
p125
aS'Macrophages_downOnly_uniGenes_FDR25_FC0p58_CD11bpCD103m_downOnly'
p126
aS'Macrophages_downOnly_uniGenes_FDR25_FC0p58_CD11bpCD103m_upOnly'
p127
aS'Macrophages_downOnly_uniGenes_FDR25_FC0p58_CD11bpCD103p_downOnly'
p128
aS'Macrophages_downOnly_uniGenes_FDR25_FC0p58_CD11bpCD103p_upOnly'
p129
aS'Macrophages_downOnly_uniGenes_FDR25_FC0p58_Macrophage_downOnly'
p130
aS'Macrophages_downOnly_uniGenes_FDR25_FC0p58_Macrophage_upOnly'
p131
aS'Macrophages_downOnly_uniGenes_FDR25_FC0p58_Monocyte_downOnly'
p132
aS'Macrophages_downOnly_uniGenes_FDR25_FC0p58_Monocyte_upOnly'
p133
aS'Macrophages_upOnly_uniGenes_FDR25_FC0p58_CD11bmCD103m_downOnly'
p134
aS'Macrophages_upOnly_uniGenes_FDR25_FC0p58_CD11bmCD103m_upOnly'
p135
aS'Macrophages_upOnly_uniGenes_FDR25_FC0p58_CD11bmCD103p_downOnly'
p136
aS'Macrophages_upOnly_uniGenes_FDR25_FC0p58_CD11bmCD103p_upOnly'
p137
aS'Macrophages_upOnly_uniGenes_FDR25_FC0p58_CD11bpCD103m_downOnly'
p138
aS'Macrophages_upOnly_uniGenes_FDR25_FC0p58_CD11bpCD103m_upOnly'
p139
aS'Macrophages_upOnly_uniGenes_FDR25_FC0p58_CD11bpCD103p_downOnly'
p140
aS'Macrophages_upOnly_uniGenes_FDR25_FC0p58_CD11bpCD103p_upOnly'
p141
aS'Macrophages_upOnly_uniGenes_FDR25_FC0p58_Macrophage_downOnly'
p142
aS'Macrophages_upOnly_uniGenes_FDR25_FC0p58_Macrophage_upOnly'
p143
aS'Macrophages_upOnly_uniGenes_FDR25_FC0p58_Monocyte_downOnly'
p144
aS'Macrophages_upOnly_uniGenes_FDR25_FC0p58_Monocyte_upOnly'
p145
aS'Monocytes_downOnly_uniGenes_FDR25_FC0p58_CD11bmCD103m_downOnly'
p146
aS'Monocytes_downOnly_uniGenes_FDR25_FC0p58_CD11bmCD103m_upOnly'
p147
aS'Monocytes_downOnly_uniGenes_FDR25_FC0p58_CD11bmCD103p_downOnly'
p148
aS'Monocytes_downOnly_uniGenes_FDR25_FC0p58_CD11bmCD103p_upOnly'
p149
aS'Monocytes_downOnly_uniGenes_FDR25_FC0p58_CD11bpCD103m_downOnly'
p150
aS'Monocytes_downOnly_uniGenes_FDR25_FC0p58_CD11bpCD103m_upOnly'
p151
aS'Monocytes_downOnly_uniGenes_FDR25_FC0p58_CD11bpCD103p_downOnly'
p152
aS'Monocytes_downOnly_uniGenes_FDR25_FC0p58_CD11bpCD103p_upOnly'
p153
aS'Monocytes_downOnly_uniGenes_FDR25_FC0p58_Macrophage_downOnly'
p154
aS'Monocytes_downOnly_uniGenes_FDR25_FC0p58_Macrophage_upOnly'
p155
aS'Monocytes_downOnly_uniGenes_FDR25_FC0p58_Monocyte_downOnly'
p156
aS'Monocytes_downOnly_uniGenes_FDR25_FC0p58_Monocyte_upOnly'
p157
aS'Monocytes_upOnly_uniGenes_FDR25_FC0p58_CD11bmCD103m_downOnly'
p158
aS'Monocytes_upOnly_uniGenes_FDR25_FC0p58_CD11bmCD103m_upOnly'
p159
aS'Monocytes_upOnly_uniGenes_FDR25_FC0p58_CD11bmCD103p_downOnly'
p160
aS'Monocytes_upOnly_uniGenes_FDR25_FC0p58_CD11bmCD103p_upOnly'
p161
aS'Monocytes_upOnly_uniGenes_FDR25_FC0p58_CD11bpCD103m_downOnly'
p162
aS'Monocytes_upOnly_uniGenes_FDR25_FC0p58_CD11bpCD103m_upOnly'
p163
aS'Monocytes_upOnly_uniGenes_FDR25_FC0p58_CD11bpCD103p_downOnly'
p164
aS'Monocytes_upOnly_uniGenes_FDR25_FC0p58_CD11bpCD103p_upOnly'
p165
aS'Monocytes_upOnly_uniGenes_FDR25_FC0p58_Macrophage_downOnly'
p166
aS'Monocytes_upOnly_uniGenes_FDR25_FC0p58_Macrophage_upOnly'
p167
aS'Monocytes_upOnly_uniGenes_FDR25_FC0p58_Monocyte_downOnly'
p168
aS'Monocytes_upOnly_uniGenes_FDR25_FC0p58_Monocyte_upOnly'
p169
a.