(lp1
S'uniGenes_FDR25_FC0p58_CD11bmCD103m_downOnly'
p2
aS'uniGenes_FDR25_FC0p58_CD11bmCD103m_upOnly'
p3
aS'uniGenes_FDR25_FC0p58_CD11bmCD103p_downOnly'
p4
aS'uniGenes_FDR25_FC0p58_CD11bmCD103p_upOnly'
p5
aS'uniGenes_FDR25_FC0p58_CD11bpCD103m_downOnly'
p6
aS'uniGenes_FDR25_FC0p58_CD11bpCD103m_upOnly'
p7
aS'uniGenes_FDR25_FC0p58_CD11bpCD103p_downOnly'
p8
aS'uniGenes_FDR25_FC0p58_CD11bpCD103p_upOnly'
p9
aS'uniGenes_FDR25_FC0p58_Macrophage_downOnly'
p10
aS'uniGenes_FDR25_FC0p58_Macrophage_upOnly'
p11
aS'uniGenes_FDR25_FC0p58_Monocyte_downOnly'
p12
aS'uniGenes_FDR25_FC0p58_Monocyte_upOnly'
p13
a.